; Function Attrs: mustprogress nounwind uwtable
define hidden void @_ZN17ThreadsSMRSupport13print_info_onEPK6ThreadP12outputStream(ptr noundef %0, ptr noundef %1) local_unnamed_addr #1 align 2 {
  %3 = getelementptr inbounds i8, ptr %0, i64 384
  %4 = load volatile ptr, ptr %3, align 8
  tail call void asm sideeffect "", "~{memory},~{dirflag},~{fpsr},~{flags}"() #15, !srcloc !6
  %.not = icmp eq ptr %4, null
  br i1 %.not, label %7, label %5

5:                                                ; preds = %2
  %6 = ptrtoint ptr %4 to i64
  tail call void (ptr, ptr, ...) @_ZN12outputStream5printEPKcz(ptr noundef nonnull align 8 dereferenceable(56) %1, ptr noundef nonnull @.str.17, i64 noundef %6) #15
  br label %7

7:                                                ; preds = %5, %2
  %8 = load i8, ptr @EnableThreadSMRStatistics, align 1
  %9 = trunc i8 %8 to i1
  br i1 %9, label %10, label %16

10:                                               ; preds = %7
  %11 = getelementptr inbounds i8, ptr %0, i64 392
  %12 = load ptr, ptr %11, align 8
  %.not18 = icmp eq ptr %12, null
  br i1 %.not18, label %16, label %13

13:                                               ; preds = %10
  %14 = getelementptr inbounds i8, ptr %0, i64 400
  %15 = load i32, ptr %14, align 8
  tail call void (ptr, ptr, ...) @_ZN12outputStream5printEPKcz(ptr noundef nonnull align 8 dereferenceable(56) %1, ptr noundef nonnull @.str.19, i32 noundef %15) #15
  br label %16

16:                                               ; preds = %13, %10, %7
  %17 = load volatile i32, ptr @_ZN20SafepointSynchronize6_stateE, align 4
  %18 = icmp eq i32 %17, 2
  %19 = tail call align 8 ptr @llvm.threadlocal.address.p0(ptr align 8 @_ZN6Thread12_thr_currentE)
  %20 = load ptr, ptr %19, align 8
  %21 = icmp eq ptr %20, %0
  %or.cond = select i1 %18, i1 true, i1 %21
  br i1 %or.cond, label %22, label %.loopexit

22:                                               ; preds = %16
  %23 = getelementptr inbounds i8, ptr %0, i64 392
  %24 = load ptr, ptr %23, align 8
  %.not19 = icmp eq ptr %24, null
  br i1 %.not19, label %.loopexit, label %25

25:                                               ; preds = %22
  %26 = load ptr, ptr %24, align 8
  %.not2023 = icmp eq ptr %26, null
  br i1 %.not2023, label %.loopexit, label %.lr.ph

.lr.ph:                                           ; preds = %25, %.lr.ph
  %.124 = phi ptr [ %35, %.lr.ph ], [ %26, %25 ]
  %27 = getelementptr inbounds i8, ptr %.124, i64 8
  %28 = load ptr, ptr %27, align 8
  %29 = getelementptr inbounds i8, ptr %28, i64 392
  %30 = load ptr, ptr %29, align 8
  %31 = icmp eq ptr %30, %.124
  %32 = getelementptr inbounds i8, ptr %.124, i64 16
  %33 = load ptr, ptr %32, align 8
  %34 = ptrtoint ptr %33 to i64
  %.str.17..str.18.i = select i1 %31, ptr @.str.17, ptr @.str.18
  tail call void (ptr, ptr, ...) @_ZN12outputStream5printEPKcz(ptr noundef nonnull align 8 dereferenceable(56) %1, ptr noundef nonnull %.str.17..str.18.i, i64 noundef %34) #15
  %35 = load ptr, ptr %.124, align 8
  %.not20 = icmp eq ptr %35, null
  br i1 %.not20, label %.loopexit, label %.lr.ph, !llvm.loop !32

.loopexit:                                        ; preds = %.lr.ph, %22, %25, %16
  ret void
}